ccopy_reg
_reconstructor
p0
(cNeuralNet
NeuralNet
p1
c__builtin__
object
p2
Ntp3
Rp4
(dp5
S'layers'
p6
(lp7
(lp8
g0
(cNeuralNet
Perceptron
p9
g2
Ntp10
Rp11
(dp12
S'weights'
p13
(lp14
F0.8662325491887385
aF5.013692476108925
aF-0.24033654590012787
aF-0.8873470464120815
aF0.2703212204356261
aF-0.6307044451470961
aF0.5521832058340443
aF-0.2591063451841495
aF0.7953492089034231
aF0.01845243907990929
aF-0.4381750813438512
aF-0.3177637549513521
aF-0.30187877848670286
aF-0.22113631089114588
aF-0.7826957093802065
aF-0.14250236877079037
aF-0.09390926799324585
aF-0.1654807488914377
aF0.5452656139161025
aF-0.0822188954120175
aF0.24995302999371613
asS'inSize'
p15
I21
sbag0
(g9
g2
Ntp16
Rp17
(dp18
g13
(lp19
F-0.9558685722853084
aF2.0187120699559054
aF-0.24446888156554333
aF0.7605888712321507
aF-0.5530713600000312
aF0.3365087246878999
aF-0.03384891318461592
aF-0.09607236790126278
aF0.5132133485986349
aF-0.5192748334792986
aF-0.022169852616665882
aF-0.20996477277627135
aF0.8433028444270348
aF0.6975230876886684
aF0.2811095330818785
aF0.7946629152956576
aF-0.6411999363262723
aF-0.6516049150909058
aF0.6249715119564838
aF-0.46445781818084564
aF0.4205685688060065
asg15
I21
sbag0
(g9
g2
Ntp20
Rp21
(dp22
g13
(lp23
F8.865939656773039
aF-6.003987226625327
aF-1.8732739649042454
aF0.150459864222269
aF-0.32611044761191454
aF-0.48686548237488286
aF0.22509185713691357
aF-0.1949491473497305
aF0.6977332301220687
aF-0.46463455893074346
aF1.1721616010776996
aF-0.42612865563759017
aF-0.31794746328973844
aF0.22118651838730577
aF0.4339305389280081
aF-0.2442412048594944
aF-0.8406498275174245
aF0.010505544708269018
aF0.43090827290151473
aF-0.4114810280931922
aF-0.21877169943114838
asg15
I21
sbag0
(g9
g2
Ntp24
Rp25
(dp26
g13
(lp27
F-0.23323531867517014
aF-4.117863914873183
aF-2.6545970847049967
aF-2.340972053325067
aF-1.989956998565741
aF-1.1325206368802996
aF-0.5061022820338047
aF0.06859962729970095
aF-1.1033929786011425
aF-0.9991175071574865
aF-0.4550369683297557
aF0.34144801388799717
aF1.3471984873247889
aF-0.32859529021367423
aF-0.03653372679744557
aF-0.3155082070890955
aF0.31893508482373556
aF-0.334972926418549
aF-0.13161756413545717
aF-0.013008303172958716
aF-1.5308857267910383
asg15
I21
sbag0
(g9
g2
Ntp28
Rp29
(dp30
g13
(lp31
F-0.09987682096334267
aF2.4638366764121726
aF-0.2846363045585614
aF-0.44158530178847333
aF-0.26645047794504045
aF0.15525398906601298
aF-0.05561231991793127
aF0.3546939252047465
aF-0.9590004185590278
aF0.6159545861911297
aF0.22548823009884258
aF0.15453884819784441
aF-0.16137942496493404
aF-0.329151644662253
aF0.34506477924620155
aF-0.5609539943560894
aF1.1511628159057048
aF-0.4723778126190543
aF-0.3831558622217833
aF-0.06083352827881997
aF0.4252585632233762
asg15
I21
sbaa(lp32
g0
(g9
g2
Ntp33
Rp34
(dp35
g13
(lp36
F0.20982645293389549
aF4.462925658091024
aF1.7534706986939153
aF-6.706909701782608
aF-4.0879907535756566
aF1.6808854238469584
asg15
I6
sbaasS'numLayers'
p37
I2
sS'hiddenLayers'
p38
(lp39
g8
asS'numHiddenLayers'
p40
I1
sS'outputLayer'
p41
g32
sS'layerSize'
p42
(lp43
I20
aI5
aI1
asb.