ccopy_reg
_reconstructor
p0
(cNeuralNet
NeuralNet
p1
c__builtin__
object
p2
Ntp3
Rp4
(dp5
S'layers'
p6
(lp7
(lp8
g0
(cNeuralNet
Perceptron
p9
g2
Ntp10
Rp11
(dp12
S'weights'
p13
(lp14
F-0.5866367990391113
aF1.2991249023136062
aF0.11744673022499591
aF0.5345697037739208
aF-1.2733751214120879
aF0.2631584099253559
aF1.3208240332556427
asS'inSize'
p15
I7
sbag0
(g9
g2
Ntp16
Rp17
(dp18
g13
(lp19
F-1.9787146326693317
aF2.0286877880598824
aF0.6756552729247791
aF-0.19549557283729913
aF-0.17994584085446472
aF0.4241710521088584
aF0.4093841549427839
asg15
I7
sbag0
(g9
g2
Ntp20
Rp21
(dp22
g13
(lp23
F0.2689975104007071
aF-1.0668604963785766
aF-1.0624174399390778
aF-1.0223035292136067
aF-0.7723514206527574
aF-0.9618031584042818
aF1.0870017962285667
asg15
I7
sbag0
(g9
g2
Ntp24
Rp25
(dp26
g13
(lp27
F-0.348437584866464
aF-0.73041532337256
aF-1.2040869619696812
aF-0.553091391946971
aF-0.9277668931543686
aF0.5302196954654063
aF0.8605838916310552
asg15
I7
sbag0
(g9
g2
Ntp28
Rp29
(dp30
g13
(lp31
F-1.0851619313563767
aF1.313241654186797
aF0.05066202267664934
aF-0.25527759110912884
aF0.2590986860141884
aF-0.7611766232378508
aF0.27786735643401367
asg15
I7
sbaa(lp32
g0
(g9
g2
Ntp33
Rp34
(dp35
g13
(lp36
F-0.727925658942333
aF1.1817974892707181
aF1.9828186624583783
aF-2.0811622720991485
aF-1.27663398500919
aF0.8019250998116635
asg15
I6
sbaasS'numLayers'
p37
I2
sS'hiddenLayers'
p38
(lp39
g8
asS'numHiddenLayers'
p40
I1
sS'outputLayer'
p41
g32
sS'layerSize'
p42
(lp43
I6
aI5
aI1
asb.